target datalayout = "e-m:e-p270:32:32-p271:32:32-p272:64:64-i64:64-f80:128-n8:16:32:64-S128"
target triple = "x86_64-pc-linux-gnu"

@.str = private unnamed_addr constant [3 x i8] c"%d\00", align 1

; Function Attrs: noinline nounwind uwtable
define dso_local void @main() #0 {
  %1 = alloca i32, align 4
  %2 = alloca [26 x i32], align 16
  %3 = alloca [26 x i32], align 16
  %4 = alloca i32, align 4
  %5 = alloca i32, align 4
  %6 = alloca i32, align 4
  %7 = alloca i32, align 4
  %8 = alloca [26 x [26 x i32]], align 16
  %9 = call i32 (i8*, ...) @__isoc99_scanf(i8* getelementptr inbounds ([3 x i8], [3 x i8]* @.str, i64 0, i64 0), i32* %1)
  store i32 1, i32* %4, align 4
  br label %10

10:                                               ; preds = %19, %0
  %11 = load i32, i32* %4, align 4
  %12 = load i32, i32* %1, align 4
  %13 = icmp sle i32 %11, %12
  br i1 %13, label %14, label %22

14:                                               ; preds = %10
  %15 = load i32, i32* %4, align 4
  %16 = sext i32 %15 to i64
  %17 = getelementptr inbounds [26 x i32], [26 x i32]* %2, i64 0, i64 %16
  %18 = call i32 (i8*, ...) @__isoc99_scanf(i8* getelementptr inbounds ([3 x i8], [3 x i8]* @.str, i64 0, i64 0), i32* %17)
  br label %19

19:                                               ; preds = %14
  %20 = load i32, i32* %4, align 4
  %21 = add nsw i32 %20, 1
  store i32 %21, i32* %4, align 4
  br label %10

22:                                               ; preds = %10
  store i32 1, i32* %4, align 4
  br label %23

23:                                               ; preds = %35, %22
  %24 = load i32, i32* %4, align 4
  %25 = load i32, i32* %1, align 4
  %26 = icmp sle i32 %24, %25
  br i1 %26, label %27, label %38

27:                                               ; preds = %23
  %28 = load i32, i32* %4, align 4
  %29 = sext i32 %28 to i64
  %30 = getelementptr inbounds [26 x i32], [26 x i32]* %2, i64 0, i64 %29
  %31 = load i32, i32* %30, align 4
  %32 = load i32, i32* %4, align 4
  %33 = sext i32 %32 to i64
  %34 = getelementptr inbounds [26 x i32], [26 x i32]* %3, i64 0, i64 %33
  store i32 %31, i32* %34, align 4
  br label %35

35:                                               ; preds = %27
  %36 = load i32, i32* %4, align 4
  %37 = add nsw i32 %36, 1
  store i32 %37, i32* %4, align 4
  br label %23

38:                                               ; preds = %23
  store i32 1, i32* %4, align 4
  br label %39

39:                                               ; preds = %83, %38
  %40 = load i32, i32* %4, align 4
  %41 = load i32, i32* %1, align 4
  %42 = icmp slt i32 %40, %41
  br i1 %42, label %43, label %86

43:                                               ; preds = %39
  %44 = load i32, i32* %4, align 4
  store i32 %44, i32* %6, align 4
  %45 = load i32, i32* %4, align 4
  %46 = add nsw i32 %45, 1
  store i32 %46, i32* %5, align 4
  br label %47

47:                                               ; preds = %64, %43
  %48 = load i32, i32* %5, align 4
  %49 = load i32, i32* %1, align 4
  %50 = icmp sle i32 %48, %49
  br i1 %50, label %51, label %67

51:                                               ; preds = %47
  %52 = load i32, i32* %5, align 4
  %53 = sext i32 %52 to i64
  %54 = getelementptr inbounds [26 x i32], [26 x i32]* %3, i64 0, i64 %53
  %55 = load i32, i32* %54, align 4
  %56 = load i32, i32* %6, align 4
  %57 = sext i32 %56 to i64
  %58 = getelementptr inbounds [26 x i32], [26 x i32]* %3, i64 0, i64 %57
  %59 = load i32, i32* %58, align 4
  %60 = icmp sgt i32 %55, %59
  br i1 %60, label %61, label %63

61:                                               ; preds = %51
  %62 = load i32, i32* %5, align 4
  store i32 %62, i32* %6, align 4
  br label %63

63:                                               ; preds = %61, %51
  br label %64

64:                                               ; preds = %63
  %65 = load i32, i32* %5, align 4
  %66 = add nsw i32 %65, 1
  store i32 %66, i32* %5, align 4
  br label %47

67:                                               ; preds = %47
  %68 = load i32, i32* %4, align 4
  %69 = sext i32 %68 to i64
  %70 = getelementptr inbounds [26 x i32], [26 x i32]* %3, i64 0, i64 %69
  %71 = load i32, i32* %70, align 4
  store i32 %71, i32* %7, align 4
  %72 = load i32, i32* %6, align 4
  %73 = sext i32 %72 to i64
  %74 = getelementptr inbounds [26 x i32], [26 x i32]* %3, i64 0, i64 %73
  %75 = load i32, i32* %74, align 4
  %76 = load i32, i32* %4, align 4
  %77 = sext i32 %76 to i64
  %78 = getelementptr inbounds [26 x i32], [26 x i32]* %3, i64 0, i64 %77
  store i32 %75, i32* %78, align 4
  %79 = load i32, i32* %7, align 4
  %80 = load i32, i32* %6, align 4
  %81 = sext i32 %80 to i64
  %82 = getelementptr inbounds [26 x i32], [26 x i32]* %3, i64 0, i64 %81
  store i32 %79, i32* %82, align 4
  br label %83

83:                                               ; preds = %67
  %84 = load i32, i32* %4, align 4
  %85 = add nsw i32 %84, 1
  store i32 %85, i32* %4, align 4
  br label %39

86:                                               ; preds = %39
  store i32 0, i32* %4, align 4
  br label %87

87:                                               ; preds = %107, %86
  %88 = load i32, i32* %4, align 4
  %89 = load i32, i32* %1, align 4
  %90 = icmp sle i32 %88, %89
  br i1 %90, label %91, label %110

91:                                               ; preds = %87
  store i32 0, i32* %5, align 4
  br label %92

92:                                               ; preds = %103, %91
  %93 = load i32, i32* %5, align 4
  %94 = load i32, i32* %1, align 4
  %95 = icmp sle i32 %93, %94
  br i1 %95, label %96, label %106

96:                                               ; preds = %92
  %97 = load i32, i32* %4, align 4
  %98 = sext i32 %97 to i64
  %99 = getelementptr inbounds [26 x [26 x i32]], [26 x [26 x i32]]* %8, i64 0, i64 %98
  %100 = load i32, i32* %5, align 4
  %101 = sext i32 %100 to i64
  %102 = getelementptr inbounds [26 x i32], [26 x i32]* %99, i64 0, i64 %101
  store i32 0, i32* %102, align 4
  br label %103

103:                                              ; preds = %96
  %104 = load i32, i32* %5, align 4
  %105 = add nsw i32 %104, 1
  store i32 %105, i32* %5, align 4
  br label %92

106:                                              ; preds = %92
  br label %107

107:                                              ; preds = %106
  %108 = load i32, i32* %4, align 4
  %109 = add nsw i32 %108, 1
  store i32 %109, i32* %4, align 4
  br label %87

110:                                              ; preds = %87
  store i32 1, i32* %4, align 4
  br label %111

111:                                              ; preds = %201, %110
  %112 = load i32, i32* %4, align 4
  %113 = load i32, i32* %1, align 4
  %114 = icmp sle i32 %112, %113
  br i1 %114, label %115, label %204

115:                                              ; preds = %111
  store i32 1, i32* %5, align 4
  br label %116

116:                                              ; preds = %197, %115
  %117 = load i32, i32* %5, align 4
  %118 = load i32, i32* %1, align 4
  %119 = icmp sle i32 %117, %118
  br i1 %119, label %120, label %200

120:                                              ; preds = %116
  %121 = load i32, i32* %4, align 4
  %122 = sext i32 %121 to i64
  %123 = getelementptr inbounds [26 x i32], [26 x i32]* %2, i64 0, i64 %122
  %124 = load i32, i32* %123, align 4
  %125 = load i32, i32* %5, align 4
  %126 = sext i32 %125 to i64
  %127 = getelementptr inbounds [26 x i32], [26 x i32]* %3, i64 0, i64 %126
  %128 = load i32, i32* %127, align 4
  %129 = icmp eq i32 %124, %128
  br i1 %129, label %130, label %147

130:                                              ; preds = %120
  %131 = load i32, i32* %4, align 4
  %132 = sub nsw i32 %131, 1
  %133 = sext i32 %132 to i64
  %134 = getelementptr inbounds [26 x [26 x i32]], [26 x [26 x i32]]* %8, i64 0, i64 %133
  %135 = load i32, i32* %5, align 4
  %136 = sub nsw i32 %135, 1
  %137 = sext i32 %136 to i64
  %138 = getelementptr inbounds [26 x i32], [26 x i32]* %134, i64 0, i64 %137
  %139 = load i32, i32* %138, align 4
  %140 = add nsw i32 %139, 1
  %141 = load i32, i32* %4, align 4
  %142 = sext i32 %141 to i64
  %143 = getelementptr inbounds [26 x [26 x i32]], [26 x [26 x i32]]* %8, i64 0, i64 %142
  %144 = load i32, i32* %5, align 4
  %145 = sext i32 %144 to i64
  %146 = getelementptr inbounds [26 x i32], [26 x i32]* %143, i64 0, i64 %145
  store i32 %140, i32* %146, align 4
  br label %196

147:                                              ; preds = %120
  %148 = load i32, i32* %4, align 4
  %149 = sub nsw i32 %148, 1
  %150 = sext i32 %149 to i64
  %151 = getelementptr inbounds [26 x [26 x i32]], [26 x [26 x i32]]* %8, i64 0, i64 %150
  %152 = load i32, i32* %5, align 4
  %153 = sext i32 %152 to i64
  %154 = getelementptr inbounds [26 x i32], [26 x i32]* %151, i64 0, i64 %153
  %155 = load i32, i32* %154, align 4
  %156 = load i32, i32* %4, align 4
  %157 = sext i32 %156 to i64
  %158 = getelementptr inbounds [26 x [26 x i32]], [26 x [26 x i32]]* %8, i64 0, i64 %157
  %159 = load i32, i32* %5, align 4
  %160 = sub nsw i32 %159, 1
  %161 = sext i32 %160 to i64
  %162 = getelementptr inbounds [26 x i32], [26 x i32]* %158, i64 0, i64 %161
  %163 = load i32, i32* %162, align 4
  %164 = icmp sgt i32 %155, %163
  br i1 %164, label %165, label %180

165:                                              ; preds = %147
  %166 = load i32, i32* %4, align 4
  %167 = sub nsw i32 %166, 1
  %168 = sext i32 %167 to i64
  %169 = getelementptr inbounds [26 x [26 x i32]], [26 x [26 x i32]]* %8, i64 0, i64 %168
  %170 = load i32, i32* %5, align 4
  %171 = sext i32 %170 to i64
  %172 = getelementptr inbounds [26 x i32], [26 x i32]* %169, i64 0, i64 %171
  %173 = load i32, i32* %172, align 4
  %174 = load i32, i32* %4, align 4
  %175 = sext i32 %174 to i64
  %176 = getelementptr inbounds [26 x [26 x i32]], [26 x [26 x i32]]* %8, i64 0, i64 %175
  %177 = load i32, i32* %5, align 4
  %178 = sext i32 %177 to i64
  %179 = getelementptr inbounds [26 x i32], [26 x i32]* %176, i64 0, i64 %178
  store i32 %173, i32* %179, align 4
  br label %195

180:                                              ; preds = %147
  %181 = load i32, i32* %4, align 4
  %182 = sext i32 %181 to i64
  %183 = getelementptr inbounds [26 x [26 x i32]], [26 x [26 x i32]]* %8, i64 0, i64 %182
  %184 = load i32, i32* %5, align 4
  %185 = sub nsw i32 %184, 1
  %186 = sext i32 %185 to i64
  %187 = getelementptr inbounds [26 x i32], [26 x i32]* %183, i64 0, i64 %186
  %188 = load i32, i32* %187, align 4
  %189 = load i32, i32* %4, align 4
  %190 = sext i32 %189 to i64
  %191 = getelementptr inbounds [26 x [26 x i32]], [26 x [26 x i32]]* %8, i64 0, i64 %190
  %192 = load i32, i32* %5, align 4
  %193 = sext i32 %192 to i64
  %194 = getelementptr inbounds [26 x i32], [26 x i32]* %191, i64 0, i64 %193
  store i32 %188, i32* %194, align 4
  br label %195

195:                                              ; preds = %180, %165
  br label %196

196:                                              ; preds = %195, %130
  br label %197

197:                                              ; preds = %196
  %198 = load i32, i32* %5, align 4
  %199 = add nsw i32 %198, 1
  store i32 %199, i32* %5, align 4
  br label %116

200:                                              ; preds = %116
  br label %201

201:                                              ; preds = %200
  %202 = load i32, i32* %4, align 4
  %203 = add nsw i32 %202, 1
  store i32 %203, i32* %4, align 4
  br label %111

204:                                              ; preds = %111
  %205 = load i32, i32* %1, align 4
  %206 = sext i32 %205 to i64
  %207 = getelementptr inbounds [26 x [26 x i32]], [26 x [26 x i32]]* %8, i64 0, i64 %206
  %208 = load i32, i32* %1, align 4
  %209 = sext i32 %208 to i64
  %210 = getelementptr inbounds [26 x i32], [26 x i32]* %207, i64 0, i64 %209
  %211 = load i32, i32* %210, align 4
  %212 = call i32 (i8*, ...) @printf(i8* getelementptr inbounds ([3 x i8], [3 x i8]* @.str, i64 0, i64 0), i32 %211)
  ret void
}